(dp1
S'session'
p2
(dp3
S'_accessed_time'
p4
F1348167318.113065
sS'_creation_time'
p5
F1348165464.6183929
sS'facility'
p6
ccopy_reg
_reconstructor
p7
(cqueries
Prototype
p8
c__builtin__
dict
p9
(dp10
S'username'
p11
S'twisterius'
p12
sS'city'
p13
S''
sS'facility_curtailment'
p14
F123
sS'address'
p15
S''
sS'facility_type'
p16
S'0'
sS'state'
p17
S'0'
sS'report_gen'
p18
NsS'risk_disqualification'
p19
NsS'risk_penalty'
p20
NsS'zip_code'
p21
I10547
sS'id'
p22
I0
sS'utility'
p23
S'1'
stRp24
(dp25
S'username'
p26
g12
sS'city'
p27
S''
sS'facility_curtailment'
p28
F123
sS'risk_penalty'
p29
NsS'facility_type'
p30
S'0'
sS'state'
p31
S'0'
sS'report_gen'
p32
NsS'risk_disqualification'
p33
NsS'address'
p34
S''
sS'utility'
p35
S'1'
sS'id'
p36
I0
sS'zip_code'
p37
I10547
sbss.